---
triple:          'arm64-apple-darwin'
binary-path:     '/Users/jimmy/Documents/Projects/Custom-Reinforcement-Learning-Algorithms/Q-Learning/Environments/Frozen_Lake/frozenLake'
relocations:
  - { offsetInCU: 0x2EA2, offset: 0x2EA2, size: 0x8, addend: 0x0, symName: __ZNSt3__124__put_character_sequenceB8ue170006IcNS_11char_traitsIcEEEERNS_13basic_ostreamIT_T0_EES7_PKS4_m, symObjAddr: 0x1EA8, symBinAddr: 0x1000049E4, symSize: 0x1F4 }
  - { offsetInCU: 0x6BB7, offset: 0x6BB7, size: 0x8, addend: 0x0, symName: __ZNSt3__1lsB8ue170006IcNS_11char_traitsIcEENS_9allocatorIcEEEERNS_13basic_ostreamIT_T0_EES9_RKNS_12basic_stringIS6_S7_T1_EE, symObjAddr: 0x4BC, symBinAddr: 0x100002FF8, symSize: 0x4C }
  - { offsetInCU: 0x6C0F, offset: 0x6C0F, size: 0x8, addend: 0x0, symName: __ZNSt3__14endlB8ue170006IcNS_11char_traitsIcEEEERNS_13basic_ostreamIT_T0_EES7_, symObjAddr: 0x878, symBinAddr: 0x1000033B4, symSize: 0x58 }
  - { offsetInCU: 0x7701, offset: 0x7701, size: 0x8, addend: 0x0, symName: __ZNSt3__1lsB8ue170006INS_11char_traitsIcEEEERNS_13basic_ostreamIcT_EES6_PKc, symObjAddr: 0xFA4, symBinAddr: 0x100003AE0, symSize: 0x48 }
  - { offsetInCU: 0x775D, offset: 0x775D, size: 0x8, addend: 0x0, symName: __ZNSt3__112__to_addressB8ue170006IKcEEPT_S3_, symObjAddr: 0x153C, symBinAddr: 0x100004078, symSize: 0x14 }
  - { offsetInCU: 0x7792, offset: 0x7792, size: 0x8, addend: 0x0, symName: __ZNSt3__130__libcpp_is_constant_evaluatedB8ue170006Ev, symObjAddr: 0x1668, symBinAddr: 0x1000041A4, symSize: 0xC }
  - { offsetInCU: 0x77E2, offset: 0x77E2, size: 0x8, addend: 0x0, symName: __ZNSt3__117__libcpp_allocateB8ue170006Emm, symObjAddr: 0x1DC0, symBinAddr: 0x1000048FC, symSize: 0x28 }
  - { offsetInCU: 0x781F, offset: 0x781F, size: 0x8, addend: 0x0, symName: __ZNSt3__121__libcpp_operator_newB8ue170006IJmEEEPvDpT_, symObjAddr: 0x1DFC, symBinAddr: 0x100004938, symSize: 0x24 }
  - { offsetInCU: 0x7858, offset: 0x7858, size: 0x8, addend: 0x0, symName: __ZNSt3__116__pad_and_outputB8ue170006IcNS_11char_traitsIcEEEENS_19ostreambuf_iteratorIT_T0_EES6_PKS4_S8_S8_RNS_8ios_baseES4_, symObjAddr: 0x2100, symBinAddr: 0x100004C3C, symSize: 0x248 }
  - { offsetInCU: 0x7927, offset: 0x7927, size: 0x8, addend: 0x0, symName: __ZNSt3__19use_facetB8ue170006INS_5ctypeIcEEEERKT_RKNS_6localeE, symObjAddr: 0x267C, symBinAddr: 0x1000051B8, symSize: 0x2C }
  - { offsetInCU: 0x7DF4, offset: 0x7DF4, size: 0x8, addend: 0x0, symName: __ZNSt3__118__constexpr_strlenB8ue170006EPKc, symObjAddr: 0x26E0, symBinAddr: 0x10000521C, symSize: 0x24 }
  - { offsetInCU: 0x7E53, offset: 0x7E53, size: 0x8, addend: 0x0, symName: __ZNSt3__112__to_addressB8ue170006INS_5arrayIiLm2EEEEEPT_S4_, symObjAddr: 0x2ADC, symBinAddr: 0x100005618, symSize: 0x14 }
  - { offsetInCU: 0x7E88, offset: 0x7E88, size: 0x8, addend: 0x0, symName: __ZNSt3__13maxB8ue170006ImEERKT_S3_S3_, symObjAddr: 0x2F0C, symBinAddr: 0x100005A48, symSize: 0x2C }
  - { offsetInCU: 0x7ECB, offset: 0x7ECB, size: 0x8, addend: 0x0, symName: __ZNSt3__13minB8ue170006ImEERKT_S3_S3_, symObjAddr: 0x2F38, symBinAddr: 0x100005A74, symSize: 0x2C }
  - { offsetInCU: 0x810F, offset: 0x810F, size: 0x8, addend: 0x0, symName: __ZNSt3__13minB8ue170006ImNS_6__lessIvvEEEERKT_S5_S5_T0_, symObjAddr: 0x2FC4, symBinAddr: 0x100005B00, symSize: 0x54 }
  - { offsetInCU: 0x81AE, offset: 0x81AE, size: 0x8, addend: 0x0, symName: __ZNSt3__120__throw_length_errorB8ue170006EPKc, symObjAddr: 0x30A0, symBinAddr: 0x100005BDC, symSize: 0x64 }
  - { offsetInCU: 0x81D8, offset: 0x81D8, size: 0x8, addend: 0x0, symName: __ZNSt3__13maxB8ue170006ImNS_6__lessIvvEEEERKT_S5_S5_T0_, symObjAddr: 0x31E4, symBinAddr: 0x100005D20, symSize: 0x54 }
  - { offsetInCU: 0x8232, offset: 0x8232, size: 0x8, addend: 0x0, symName: __ZNSt3__119__allocate_at_leastB8ue170006INS_9allocatorINS_5arrayIiLm2EEEEEEENS_19__allocation_resultINS_16allocator_traitsIT_E7pointerEEERS7_m, symObjAddr: 0x3348, symBinAddr: 0x100005E84, symSize: 0x40 }
  - { offsetInCU: 0x8275, offset: 0x8275, size: 0x8, addend: 0x0, symName: __ZNSt3__142__uninitialized_allocator_move_if_noexceptB8ue170006INS_9allocatorINS_5arrayIiLm2EEEEENS_16reverse_iteratorIPS3_EES7_S3_vEET1_RT_T0_SB_S8_, symObjAddr: 0x35E0, symBinAddr: 0x10000611C, symSize: 0xE8 }
  - { offsetInCU: 0x82F2, offset: 0x82F2, size: 0x8, addend: 0x0, symName: __ZNSt3__14swapB8ue170006IPNS_5arrayIiLm2EEEEEvRT_S5_, symObjAddr: 0x3714, symBinAddr: 0x100006250, symSize: 0x3C }
  - { offsetInCU: 0x8343, offset: 0x8343, size: 0x8, addend: 0x0, symName: __ZNSt3__1neB8ue170006IPNS_5arrayIiLm2EEES3_EEbRKNS_16reverse_iteratorIT_EERKNS4_IT0_EE, symObjAddr: 0x3844, symBinAddr: 0x100006380, symSize: 0x48 }
  - { offsetInCU: 0x83B4, offset: 0x83B4, size: 0x8, addend: 0x0, symName: __ZNSt3__114__construct_atB8ue170006INS_5arrayIiLm2EEEJS2_EPS2_EEPT_S5_DpOT0_, symObjAddr: 0x388C, symBinAddr: 0x1000063C8, symSize: 0x2C }
  - { offsetInCU: 0x8424, offset: 0x8424, size: 0x8, addend: 0x0, symName: __ZNSt3__112__to_addressB8ue170006INS_16reverse_iteratorIPNS_5arrayIiLm2EEEEEvEEu7__decayIDTclsr19__to_address_helperIT_EE6__callclsr3stdE7declvalIRKS6_EEEEES8_, symObjAddr: 0x38B8, symBinAddr: 0x1000063F4, symSize: 0x24 }
  - { offsetInCU: 0x845A, offset: 0x845A, size: 0x8, addend: 0x0, symName: __ZNSt3__14moveB8ue170006INS_16reverse_iteratorIPNS_5arrayIiLm2EEEEES5_EET0_T_S7_S6_, symObjAddr: 0x3924, symBinAddr: 0x100006460, symSize: 0x78 }
  - { offsetInCU: 0x84DD, offset: 0x84DD, size: 0x8, addend: 0x0, symName: __ZNSt3__16__moveB8ue170006INS_17_ClassicAlgPolicyENS_16reverse_iteratorIPNS_5arrayIiLm2EEEEES6_S6_EENS_4pairIT0_T2_EES8_T1_S9_, symObjAddr: 0x3A0C, symBinAddr: 0x100006548, symSize: 0x64 }
  - { offsetInCU: 0x8549, offset: 0x8549, size: 0x8, addend: 0x0, symName: __ZNSt3__123__dispatch_copy_or_moveB8ue170006INS_17_ClassicAlgPolicyENS_11__move_loopIS1_EENS_14__move_trivialENS_16reverse_iteratorIPNS_5arrayIiLm2EEEEES9_S9_EENS_4pairIT2_T4_EESB_T3_SC_, symObjAddr: 0x3A70, symBinAddr: 0x1000065AC, symSize: 0x64 }
  - { offsetInCU: 0x85C7, offset: 0x85C7, size: 0x8, addend: 0x0, symName: __ZNSt3__121__unwrap_and_dispatchB8ue170006INS_10__overloadINS_11__move_loopINS_17_ClassicAlgPolicyEEENS_14__move_trivialEEENS_16reverse_iteratorIPNS_5arrayIiLm2EEEEESB_SB_Li0EEENS_4pairIT0_T2_EESD_T1_SE_, symObjAddr: 0x3AD4, symBinAddr: 0x100006610, symSize: 0x12C }
  - { offsetInCU: 0x8657, offset: 0x8657, size: 0x8, addend: 0x0, symName: __ZNSt3__114__unwrap_rangeB8ue170006INS_16reverse_iteratorIPNS_5arrayIiLm2EEEEES5_EENS_4pairIT0_S7_EET_S9_, symObjAddr: 0x3C00, symBinAddr: 0x10000673C, symSize: 0x84 }
  - { offsetInCU: 0x87AB, offset: 0x87AB, size: 0x8, addend: 0x0, symName: __ZNSt3__113__unwrap_iterB8ue170006INS_16reverse_iteratorIPNS_5arrayIiLm2EEEEENS_18__unwrap_iter_implIS5_Lb0EEELi0EEEDTclsrT0_8__unwrapclsr3stdE7declvalIT_EEEES9_, symObjAddr: 0x3D24, symBinAddr: 0x100006860, symSize: 0x44 }
  - { offsetInCU: 0x87EF, offset: 0x87EF, size: 0x8, addend: 0x0, symName: __ZNSt3__19make_pairB8ue170006INS_16reverse_iteratorIPNS_5arrayIiLm2EEEEES5_EENS_4pairINS_18__unwrap_ref_decayIT_E4typeENS7_IT0_E4typeEEEOS8_OSB_, symObjAddr: 0x3D68, symBinAddr: 0x1000068A4, symSize: 0x38 }
  - { offsetInCU: 0x883E, offset: 0x883E, size: 0x8, addend: 0x0, symName: __ZNSt3__114__rewrap_rangeB8ue170006INS_16reverse_iteratorIPNS_5arrayIiLm2EEEEES5_EET_S6_T0_, symObjAddr: 0x3DA0, symBinAddr: 0x1000068DC, symSize: 0x5C }
  - { offsetInCU: 0x888A, offset: 0x888A, size: 0x8, addend: 0x0, symName: __ZNSt3__113__rewrap_iterB8ue170006INS_16reverse_iteratorIPNS_5arrayIiLm2EEEEES5_NS_18__unwrap_iter_implIS5_Lb0EEEEET_S8_T0_, symObjAddr: 0x3DFC, symBinAddr: 0x100006938, symSize: 0x88 }
  - { offsetInCU: 0x8991, offset: 0x8991, size: 0x8, addend: 0x0, symName: __ZNSt3__119__libcpp_deallocateB8ue170006EPvmm, symObjAddr: 0x4224, symBinAddr: 0x100006D60, symSize: 0x30 }
  - { offsetInCU: 0x89D9, offset: 0x89D9, size: 0x8, addend: 0x0, symName: __ZNSt3__127__do_deallocate_handle_sizeB8ue170006IJEEEvPvmDpT_, symObjAddr: 0x4254, symBinAddr: 0x100006D90, symSize: 0x28 }
  - { offsetInCU: 0x8A17, offset: 0x8A17, size: 0x8, addend: 0x0, symName: __ZNSt3__124__libcpp_operator_deleteB8ue170006IJPvEEEvDpT_, symObjAddr: 0x427C, symBinAddr: 0x100006DB8, symSize: 0x24 }
  - { offsetInCU: 0x8A4C, offset: 0x8A4C, size: 0x8, addend: 0x0, symName: __ZNSt3__1eqB8ue170006IiLm2EEEbRKNS_5arrayIT_XT0_EEES5_, symObjAddr: 0x476C, symBinAddr: 0x1000072A8, symSize: 0x54 }
  - { offsetInCU: 0x8A9C, offset: 0x8A9C, size: 0x8, addend: 0x0, symName: __ZNSt3__15equalB8ue170006IPKiS2_EEbT_S3_T0_, symObjAddr: 0x47C0, symBinAddr: 0x1000072FC, symSize: 0x38 }
  - { offsetInCU: 0x8AF6, offset: 0x8AF6, size: 0x8, addend: 0x0, symName: __ZNSt3__15equalB8ue170006IPKiS2_NS_10__equal_toEEEbT_S4_T0_T1_, symObjAddr: 0x4844, symBinAddr: 0x100007380, symSize: 0x5C }
  - { offsetInCU: 0x8B67, offset: 0x8B67, size: 0x8, addend: 0x0, symName: __ZNSt3__117__equal_iter_implB8ue170006IKiS1_NS_10__equal_toELi0EEEbPT_S4_PT0_RT1_, symObjAddr: 0x48A0, symBinAddr: 0x1000073DC, symSize: 0x4C }
  - { offsetInCU: 0x8BDA, offset: 0x8BDA, size: 0x8, addend: 0x0, symName: __ZNSt3__113__unwrap_iterB8ue170006IPKiNS_18__unwrap_iter_implIS2_Lb1EEELi0EEEDTclsrT0_8__unwrapclsr3stdE7declvalIT_EEEES6_, symObjAddr: 0x48EC, symBinAddr: 0x100007428, symSize: 0x24 }
  - { offsetInCU: 0x8C1E, offset: 0x8C1E, size: 0x8, addend: 0x0, symName: __ZNSt3__124__constexpr_memcmp_equalB8ue170006IiiEEbPKT_PKT0_NS_15__element_countE, symObjAddr: 0x4910, symBinAddr: 0x10000744C, symSize: 0xF4 }
  - { offsetInCU: 0x8CD9, offset: 0x8CD9, size: 0x8, addend: 0x0, symName: __ZNSt3__112__to_addressB8ue170006IKiEEPT_S3_, symObjAddr: 0x4A28, symBinAddr: 0x100007564, symSize: 0x14 }
  - { offsetInCU: 0x8F0B, offset: 0x8F0B, size: 0x8, addend: 0x0, symName: __ZSt28__throw_bad_array_new_lengthB8ue170006v, symObjAddr: 0x1D8C, symBinAddr: 0x1000048C8, symSize: 0x34 }
  - { offsetInCU: 0x9769, offset: 0x9769, size: 0x8, addend: 0x0, symName: __ZNSt3__16vectorINS_5arrayIiLm2EEENS_9allocatorIS2_EEE26__swap_out_circular_bufferERNS_14__split_bufferIS2_RS4_EE, symObjAddr: 0x2D00, symBinAddr: 0x10000583C, symSize: 0x110 }
  - { offsetInCU: 0xA014, offset: 0xA014, size: 0x8, addend: 0x0, symName: __Z7toloweri, symObjAddr: 0x4748, symBinAddr: 0x100007284, symSize: 0x24 }
  - { offsetInCU: 0xB8F1, offset: 0xB8F1, size: 0x8, addend: 0x0, symName: _main, symObjAddr: 0x0, symBinAddr: 0x100002B3C, symSize: 0x22C }
  - { offsetInCU: 0xB92E, offset: 0xB92E, size: 0x8, addend: 0x0, symName: __ZNSt3__112basic_stringIcNS_11char_traitsIcEENS_9allocatorIcEEEC1B8ue170006ILi0EEEPKc, symObjAddr: 0x22C, symBinAddr: 0x100002D68, symSize: 0x34 }
  - { offsetInCU: 0xBA05, offset: 0xBA05, size: 0x8, addend: 0x0, symName: __ZN5StateC1ENSt3__112basic_stringIcNS0_11char_traitsIcEENS0_9allocatorIcEEEE, symObjAddr: 0x260, symBinAddr: 0x100002D9C, symSize: 0x34 }
  - { offsetInCU: 0xBA3E, offset: 0xBA3E, size: 0x8, addend: 0x0, symName: __ZN5State10printStateEv, symObjAddr: 0x2A0, symBinAddr: 0x100002DDC, symSize: 0x21C }
  - { offsetInCU: 0xBA81, offset: 0xBA81, size: 0x8, addend: 0x0, symName: __ZN5State10makeActionEc, symObjAddr: 0x508, symBinAddr: 0x100003044, symSize: 0x2FC }
  - { offsetInCU: 0xBAD2, offset: 0xBAD2, size: 0x8, addend: 0x0, symName: __ZNSt3__113basic_ostreamIcNS_11char_traitsIcEEElsB8ue170006EPFRS3_S4_E, symObjAddr: 0x84C, symBinAddr: 0x100003388, symSize: 0x2C }
  - { offsetInCU: 0xBB06, offset: 0xBB06, size: 0x8, addend: 0x0, symName: __ZN5StateD1Ev, symObjAddr: 0x8D0, symBinAddr: 0x10000340C, symSize: 0x2C }
  - { offsetInCU: 0xBB32, offset: 0xBB32, size: 0x8, addend: 0x0, symName: __ZN5StateC2ENSt3__112basic_stringIcNS0_11char_traitsIcEENS0_9allocatorIcEEEE, symObjAddr: 0x8FC, symBinAddr: 0x100003438, symSize: 0x3C8 }
  - { offsetInCU: 0xBBF1, offset: 0xBBF1, size: 0x8, addend: 0x0, symName: __ZNSt3__16vectorINS_5arrayIiLm2EEENS_9allocatorIS2_EEEC1B8ue170006Ev, symObjAddr: 0xCC4, symBinAddr: 0x100003800, symSize: 0x2C }
  - { offsetInCU: 0xBCBF, offset: 0xBCBF, size: 0x8, addend: 0x0, symName: __ZNSt3__114basic_ifstreamIcNS_11char_traitsIcEEEC1ERKNS_12basic_stringIcS2_NS_9allocatorIcEEEEj, symObjAddr: 0xCF0, symBinAddr: 0x10000382C, symSize: 0x17C }
  - { offsetInCU: 0xBD68, offset: 0xBD68, size: 0x8, addend: 0x0, symName: __ZNSt3__118basic_stringstreamIcNS_11char_traitsIcEENS_9allocatorIcEEEC1B8ue170006Ev, symObjAddr: 0xE6C, symBinAddr: 0x1000039A8, symSize: 0x110 }
  - { offsetInCU: 0xBD92, offset: 0xBD92, size: 0x8, addend: 0x0, symName: __ZNKSt3__19basic_iosIcNS_11char_traitsIcEEEntB8ue170006Ev, symObjAddr: 0xF7C, symBinAddr: 0x100003AB8, symSize: 0x28 }
  - { offsetInCU: 0xBDB8, offset: 0xBDB8, size: 0x8, addend: 0x0, symName: __ZNKSt3__114basic_ifstreamIcNS_11char_traitsIcEEE5rdbufEv, symObjAddr: 0xFEC, symBinAddr: 0x100003B28, symSize: 0x18 }
  - { offsetInCU: 0xBDE0, offset: 0xBDE0, size: 0x8, addend: 0x0, symName: __ZNKSt3__118basic_stringstreamIcNS_11char_traitsIcEENS_9allocatorIcEEE3strB8ue170006Ev, symObjAddr: 0x1004, symBinAddr: 0x100003B40, symSize: 0x30 }
  - { offsetInCU: 0xBE06, offset: 0xBE06, size: 0x8, addend: 0x0, symName: __ZNKSt3__112basic_stringIcNS_11char_traitsIcEENS_9allocatorIcEEE6lengthB8ue170006Ev, symObjAddr: 0x1034, symBinAddr: 0x100003B70, symSize: 0x24 }
  - { offsetInCU: 0xBE2C, offset: 0xBE2C, size: 0x8, addend: 0x0, symName: __ZNSt3__112basic_stringIcNS_11char_traitsIcEENS_9allocatorIcEEEixB8ue170006Em, symObjAddr: 0x1058, symBinAddr: 0x100003B94, symSize: 0x30 }
  - { offsetInCU: 0xBE61, offset: 0xBE61, size: 0x8, addend: 0x0, symName: __ZNSt3__15arrayIiLm2EEixB8ue170006Em, symObjAddr: 0x1088, symBinAddr: 0x100003BC4, symSize: 0x20 }
  - { offsetInCU: 0xBE95, offset: 0xBE95, size: 0x8, addend: 0x0, symName: __ZNSt3__16vectorINS_5arrayIiLm2EEENS_9allocatorIS2_EEE9push_backB8ue170006ERKS2_, symObjAddr: 0x10A8, symBinAddr: 0x100003BE4, symSize: 0x6C }
  - { offsetInCU: 0xBED1, offset: 0xBED1, size: 0x8, addend: 0x0, symName: __ZNSt3__118basic_stringstreamIcNS_11char_traitsIcEENS_9allocatorIcEEED1Ev, symObjAddr: 0x1114, symBinAddr: 0x100003C50, symSize: 0x70 }
  - { offsetInCU: 0xBF03, offset: 0xBF03, size: 0x8, addend: 0x0, symName: __ZNSt3__114basic_ifstreamIcNS_11char_traitsIcEEED1Ev, symObjAddr: 0x1184, symBinAddr: 0x100003CC0, symSize: 0x70 }
  - { offsetInCU: 0xBF30, offset: 0xBF30, size: 0x8, addend: 0x0, symName: __ZNSt3__16vectorINS_5arrayIiLm2EEENS_9allocatorIS2_EEED1B8ue170006Ev, symObjAddr: 0x11F4, symBinAddr: 0x100003D30, symSize: 0x2C }
  - { offsetInCU: 0xBF5A, offset: 0xBF5A, size: 0x8, addend: 0x0, symName: __ZNSt3__16vectorINS_5arrayIiLm2EEENS_9allocatorIS2_EEEC2B8ue170006Ev, symObjAddr: 0x1220, symBinAddr: 0x100003D5C, symSize: 0x44 }
  - { offsetInCU: 0xBF8E, offset: 0xBF8E, size: 0x8, addend: 0x0, symName: __ZNSt3__117__compressed_pairIPNS_5arrayIiLm2EEENS_9allocatorIS2_EEEC1B8ue170006IDnNS_18__default_init_tagEEEOT_OT0_, symObjAddr: 0x1264, symBinAddr: 0x100003DA0, symSize: 0x3C }
  - { offsetInCU: 0xBFE6, offset: 0xBFE6, size: 0x8, addend: 0x0, symName: __ZNSt3__117__compressed_pairIPNS_5arrayIiLm2EEENS_9allocatorIS2_EEEC2B8ue170006IDnNS_18__default_init_tagEEEOT_OT0_, symObjAddr: 0x12A0, symBinAddr: 0x100003DDC, symSize: 0x40 }
  - { offsetInCU: 0xC03E, offset: 0xC03E, size: 0x8, addend: 0x0, symName: __ZNSt3__122__compressed_pair_elemIPNS_5arrayIiLm2EEELi0ELb0EEC2B8ue170006IDnvEEOT_, symObjAddr: 0x12E0, symBinAddr: 0x100003E1C, symSize: 0x1C }
  - { offsetInCU: 0xC080, offset: 0xC080, size: 0x8, addend: 0x0, symName: __ZNSt3__122__compressed_pair_elemINS_9allocatorINS_5arrayIiLm2EEEEELi1ELb1EEC2B8ue170006ENS_18__default_init_tagE, symObjAddr: 0x12FC, symBinAddr: 0x100003E38, symSize: 0x2C }
  - { offsetInCU: 0xC0B4, offset: 0xC0B4, size: 0x8, addend: 0x0, symName: __ZNSt3__19allocatorINS_5arrayIiLm2EEEEC2B8ue170006Ev, symObjAddr: 0x1328, symBinAddr: 0x100003E64, symSize: 0x2C }
  - { offsetInCU: 0xC0DE, offset: 0xC0DE, size: 0x8, addend: 0x0, symName: __ZNSt3__116__non_trivial_ifILb1ENS_9allocatorINS_5arrayIiLm2EEEEEEC2B8ue170006Ev, symObjAddr: 0x1354, symBinAddr: 0x100003E90, symSize: 0x14 }
  - { offsetInCU: 0xC108, offset: 0xC108, size: 0x8, addend: 0x0, symName: __ZNSt3__19basic_iosIcNS_11char_traitsIcEEEC2B8ue170006Ev, symObjAddr: 0x1368, symBinAddr: 0x100003EA4, symSize: 0x44 }
  - { offsetInCU: 0xC132, offset: 0xC132, size: 0x8, addend: 0x0, symName: __ZNSt3__113basic_istreamIcNS_11char_traitsIcEEEC2B8ue170006EPNS_15basic_streambufIcS2_EE, symObjAddr: 0x13AC, symBinAddr: 0x100003EE8, symSize: 0x64 }
  - { offsetInCU: 0xC177, offset: 0xC177, size: 0x8, addend: 0x0, symName: __ZNSt3__113basic_filebufIcNS_11char_traitsIcEEE4openERKNS_12basic_stringIcS2_NS_9allocatorIcEEEEj, symObjAddr: 0x1410, symBinAddr: 0x100003F4C, symSize: 0x44 }
  - { offsetInCU: 0xC1BB, offset: 0xC1BB, size: 0x8, addend: 0x0, symName: __ZNSt3__19basic_iosIcNS_11char_traitsIcEEE8setstateB8ue170006Ej, symObjAddr: 0x1454, symBinAddr: 0x100003F90, symSize: 0x2C }
  - { offsetInCU: 0xC1F0, offset: 0xC1F0, size: 0x8, addend: 0x0, symName: __ZNSt3__18ios_baseC2B8ue170006Ev, symObjAddr: 0x1480, symBinAddr: 0x100003FBC, symSize: 0x24 }
  - { offsetInCU: 0xC21A, offset: 0xC21A, size: 0x8, addend: 0x0, symName: __ZNSt3__19basic_iosIcNS_11char_traitsIcEEE4initB8ue170006EPNS_15basic_streambufIcS2_EE, symObjAddr: 0x14A4, symBinAddr: 0x100003FE0, symSize: 0x44 }
  - { offsetInCU: 0xC251, offset: 0xC251, size: 0x8, addend: 0x0, symName: __ZNSt3__111char_traitsIcE3eofB8ue170006Ev, symObjAddr: 0x14E8, symBinAddr: 0x100004024, symSize: 0x8 }
  - { offsetInCU: 0xC265, offset: 0xC265, size: 0x8, addend: 0x0, symName: __ZNKSt3__112basic_stringIcNS_11char_traitsIcEENS_9allocatorIcEEE5c_strB8ue170006Ev, symObjAddr: 0x14F0, symBinAddr: 0x10000402C, symSize: 0x24 }
  - { offsetInCU: 0xC28B, offset: 0xC28B, size: 0x8, addend: 0x0, symName: __ZNKSt3__112basic_stringIcNS_11char_traitsIcEENS_9allocatorIcEEE4dataB8ue170006Ev, symObjAddr: 0x1514, symBinAddr: 0x100004050, symSize: 0x28 }
  - { offsetInCU: 0xC2B1, offset: 0xC2B1, size: 0x8, addend: 0x0, symName: __ZNKSt3__112basic_stringIcNS_11char_traitsIcEENS_9allocatorIcEEE13__get_pointerB8ue170006Ev, symObjAddr: 0x1550, symBinAddr: 0x10000408C, symSize: 0x54 }
  - { offsetInCU: 0xC2D7, offset: 0xC2D7, size: 0x8, addend: 0x0, symName: __ZNKSt3__112basic_stringIcNS_11char_traitsIcEENS_9allocatorIcEEE9__is_longB8ue170006Ev, symObjAddr: 0x15A4, symBinAddr: 0x1000040E0, symSize: 0x74 }
  - { offsetInCU: 0xC2FD, offset: 0xC2FD, size: 0x8, addend: 0x0, symName: __ZNKSt3__112basic_stringIcNS_11char_traitsIcEENS_9allocatorIcEEE18__get_long_pointerB8ue170006Ev, symObjAddr: 0x1618, symBinAddr: 0x100004154, symSize: 0x28 }
  - { offsetInCU: 0xC323, offset: 0xC323, size: 0x8, addend: 0x0, symName: __ZNKSt3__112basic_stringIcNS_11char_traitsIcEENS_9allocatorIcEEE19__get_short_pointerB8ue170006Ev, symObjAddr: 0x1640, symBinAddr: 0x10000417C, symSize: 0x28 }
  - { offsetInCU: 0xC349, offset: 0xC349, size: 0x8, addend: 0x0, symName: __ZNKSt3__117__compressed_pairINS_12basic_stringIcNS_11char_traitsIcEENS_9allocatorIcEEE5__repES5_E5firstB8ue170006Ev, symObjAddr: 0x1674, symBinAddr: 0x1000041B0, symSize: 0x24 }
  - { offsetInCU: 0xC36F, offset: 0xC36F, size: 0x8, addend: 0x0, symName: __ZNKSt3__122__compressed_pair_elemINS_12basic_stringIcNS_11char_traitsIcEENS_9allocatorIcEEE5__repELi0ELb0EE5__getB8ue170006Ev, symObjAddr: 0x1698, symBinAddr: 0x1000041D4, symSize: 0x14 }
  - { offsetInCU: 0xC395, offset: 0xC395, size: 0x8, addend: 0x0, symName: __ZNSt3__114pointer_traitsIPKcE10pointer_toB8ue170006ERS1_, symObjAddr: 0x16AC, symBinAddr: 0x1000041E8, symSize: 0x14 }
  - { offsetInCU: 0xC3B8, offset: 0xC3B8, size: 0x8, addend: 0x0, symName: __ZNSt3__18ios_base8setstateB8ue170006Ej, symObjAddr: 0x16C0, symBinAddr: 0x1000041FC, symSize: 0x34 }
  - { offsetInCU: 0xC3EF, offset: 0xC3EF, size: 0x8, addend: 0x0, symName: __ZNSt3__114basic_iostreamIcNS_11char_traitsIcEEEC2B8ue170006EPNS_15basic_streambufIcS2_EE, symObjAddr: 0x16F4, symBinAddr: 0x100004230, symSize: 0xB4 }
  - { offsetInCU: 0xC435, offset: 0xC435, size: 0x8, addend: 0x0, symName: __ZNSt3__115basic_stringbufIcNS_11char_traitsIcEENS_9allocatorIcEEEC1B8ue170006Ej, symObjAddr: 0x17A8, symBinAddr: 0x1000042E4, symSize: 0x34 }
  - { offsetInCU: 0xC46E, offset: 0xC46E, size: 0x8, addend: 0x0, symName: __ZNSt3__113basic_ostreamIcNS_11char_traitsIcEEEC2B8ue170006Ev, symObjAddr: 0x17DC, symBinAddr: 0x100004318, symSize: 0x34 }
  - { offsetInCU: 0xC4A5, offset: 0xC4A5, size: 0x8, addend: 0x0, symName: __ZNSt3__115basic_stringbufIcNS_11char_traitsIcEENS_9allocatorIcEEEC2B8ue170006Ej, symObjAddr: 0x1810, symBinAddr: 0x10000434C, symSize: 0x90 }
  - { offsetInCU: 0xC4DE, offset: 0xC4DE, size: 0x8, addend: 0x0, symName: __ZNSt3__112basic_stringIcNS_11char_traitsIcEENS_9allocatorIcEEEC1B8ue170006Ev, symObjAddr: 0x18A0, symBinAddr: 0x1000043DC, symSize: 0x2C }
  - { offsetInCU: 0xC508, offset: 0xC508, size: 0x8, addend: 0x0, symName: __ZNSt3__112basic_stringIcNS_11char_traitsIcEENS_9allocatorIcEEEC2B8ue170006Ev, symObjAddr: 0x18CC, symBinAddr: 0x100004408, symSize: 0x3C }
  - { offsetInCU: 0xC532, offset: 0xC532, size: 0x8, addend: 0x0, symName: __ZNSt3__117__compressed_pairINS_12basic_stringIcNS_11char_traitsIcEENS_9allocatorIcEEE5__repES5_EC1B8ue170006INS_18__default_init_tagESA_EEOT_OT0_, symObjAddr: 0x1908, symBinAddr: 0x100004444, symSize: 0x3C }
  - { offsetInCU: 0xC58A, offset: 0xC58A, size: 0x8, addend: 0x0, symName: __ZNSt3__112basic_stringIcNS_11char_traitsIcEENS_9allocatorIcEEE14__default_initB8ue170006Ev, symObjAddr: 0x1944, symBinAddr: 0x100004480, symSize: 0xB0 }
  - { offsetInCU: 0xC5DD, offset: 0xC5DD, size: 0x8, addend: 0x0, symName: __ZNSt3__117__compressed_pairINS_12basic_stringIcNS_11char_traitsIcEENS_9allocatorIcEEE5__repES5_EC2B8ue170006INS_18__default_init_tagESA_EEOT_OT0_, symObjAddr: 0x19F4, symBinAddr: 0x100004530, symSize: 0x3C }
  - { offsetInCU: 0xC635, offset: 0xC635, size: 0x8, addend: 0x0, symName: __ZNSt3__122__compressed_pair_elemINS_12basic_stringIcNS_11char_traitsIcEENS_9allocatorIcEEE5__repELi0ELb0EEC2B8ue170006ENS_18__default_init_tagE, symObjAddr: 0x1A30, symBinAddr: 0x10000456C, symSize: 0x14 }
  - { offsetInCU: 0xC669, offset: 0xC669, size: 0x8, addend: 0x0, symName: __ZNSt3__122__compressed_pair_elemINS_9allocatorIcEELi1ELb1EEC2B8ue170006ENS_18__default_init_tagE, symObjAddr: 0x1A44, symBinAddr: 0x100004580, symSize: 0x2C }
  - { offsetInCU: 0xC69D, offset: 0xC69D, size: 0x8, addend: 0x0, symName: __ZNSt3__19allocatorIcEC2B8ue170006Ev, symObjAddr: 0x1A70, symBinAddr: 0x1000045AC, symSize: 0x2C }
  - { offsetInCU: 0xC6C7, offset: 0xC6C7, size: 0x8, addend: 0x0, symName: __ZNSt3__116__non_trivial_ifILb1ENS_9allocatorIcEEEC2B8ue170006Ev, symObjAddr: 0x1A9C, symBinAddr: 0x1000045D8, symSize: 0x14 }
  - { offsetInCU: 0xC6F1, offset: 0xC6F1, size: 0x8, addend: 0x0, symName: __ZNSt3__117__compressed_pairINS_12basic_stringIcNS_11char_traitsIcEENS_9allocatorIcEEE5__repES5_E5firstB8ue170006Ev, symObjAddr: 0x1AB0, symBinAddr: 0x1000045EC, symSize: 0x24 }
  - { offsetInCU: 0xC717, offset: 0xC717, size: 0x8, addend: 0x0, symName: __ZNSt3__112basic_stringIcNS_11char_traitsIcEENS_9allocatorIcEEE11__recommendB8ue170006Em, symObjAddr: 0x1AD4, symBinAddr: 0x100004610, symSize: 0x9C }
  - { offsetInCU: 0xC74A, offset: 0xC74A, size: 0x8, addend: 0x0, symName: __ZNSt3__116allocator_traitsINS_9allocatorIcEEE8allocateB8ue170006ERS2_m, symObjAddr: 0x1B70, symBinAddr: 0x1000046AC, symSize: 0x2C }
  - { offsetInCU: 0xC77D, offset: 0xC77D, size: 0x8, addend: 0x0, symName: __ZNSt3__112basic_stringIcNS_11char_traitsIcEENS_9allocatorIcEEE7__allocB8ue170006Ev, symObjAddr: 0x1B9C, symBinAddr: 0x1000046D8, symSize: 0x24 }
  - { offsetInCU: 0xC7A3, offset: 0xC7A3, size: 0x8, addend: 0x0, symName: __ZNSt3__112basic_stringIcNS_11char_traitsIcEENS_9allocatorIcEEE16__begin_lifetimeB8ue170006EPcm, symObjAddr: 0x1BC0, symBinAddr: 0x1000046FC, symSize: 0x14 }
  - { offsetInCU: 0xC7D6, offset: 0xC7D6, size: 0x8, addend: 0x0, symName: __ZNSt3__112basic_stringIcNS_11char_traitsIcEENS_9allocatorIcEEE18__set_long_pointerB8ue170006EPc, symObjAddr: 0x1BD4, symBinAddr: 0x100004710, symSize: 0x38 }
  - { offsetInCU: 0xC80B, offset: 0xC80B, size: 0x8, addend: 0x0, symName: __ZNSt3__112basic_stringIcNS_11char_traitsIcEENS_9allocatorIcEEE14__set_long_capB8ue170006Em, symObjAddr: 0x1C0C, symBinAddr: 0x100004748, symSize: 0x70 }
  - { offsetInCU: 0xC840, offset: 0xC840, size: 0x8, addend: 0x0, symName: __ZNSt3__112basic_stringIcNS_11char_traitsIcEENS_9allocatorIcEEE15__set_long_sizeB8ue170006Em, symObjAddr: 0x1C7C, symBinAddr: 0x1000047B8, symSize: 0x38 }
  - { offsetInCU: 0xC875, offset: 0xC875, size: 0x8, addend: 0x0, symName: __ZNSt3__122__compressed_pair_elemINS_12basic_stringIcNS_11char_traitsIcEENS_9allocatorIcEEE5__repELi0ELb0EE5__getB8ue170006Ev, symObjAddr: 0x1CB4, symBinAddr: 0x1000047F0, symSize: 0x14 }
  - { offsetInCU: 0xC89B, offset: 0xC89B, size: 0x8, addend: 0x0, symName: __ZNSt3__112basic_stringIcNS_11char_traitsIcEENS_9allocatorIcEEE10__align_itB8ue170006ILm16EEEmm, symObjAddr: 0x1CC8, symBinAddr: 0x100004804, symSize: 0x1C }
  - { offsetInCU: 0xC8C9, offset: 0xC8C9, size: 0x8, addend: 0x0, symName: __ZNSt3__19allocatorIcE8allocateB8ue170006Em, symObjAddr: 0x1CE4, symBinAddr: 0x100004820, symSize: 0x84 }
  - { offsetInCU: 0xC907, offset: 0xC907, size: 0x8, addend: 0x0, symName: __ZNSt3__116allocator_traitsINS_9allocatorIcEEE8max_sizeB8ue170006IS2_vEEmRKS2_, symObjAddr: 0x1D68, symBinAddr: 0x1000048A4, symSize: 0x24 }
  - { offsetInCU: 0xC935, offset: 0xC935, size: 0x8, addend: 0x0, symName: __ZNKSt3__19allocatorIcE8max_sizeB8ue170006Ev, symObjAddr: 0x1DE8, symBinAddr: 0x100004924, symSize: 0x14 }
  - { offsetInCU: 0xC95B, offset: 0xC95B, size: 0x8, addend: 0x0, symName: __ZNSt3__117__compressed_pairINS_12basic_stringIcNS_11char_traitsIcEENS_9allocatorIcEEE5__repES5_E6secondB8ue170006Ev, symObjAddr: 0x1E20, symBinAddr: 0x10000495C, symSize: 0x24 }
  - { offsetInCU: 0xC981, offset: 0xC981, size: 0x8, addend: 0x0, symName: __ZNSt3__122__compressed_pair_elemINS_9allocatorIcEELi1ELb1EE5__getB8ue170006Ev, symObjAddr: 0x1E44, symBinAddr: 0x100004980, symSize: 0x14 }
  - { offsetInCU: 0xC9A7, offset: 0xC9A7, size: 0x8, addend: 0x0, symName: __ZNKSt3__19basic_iosIcNS_11char_traitsIcEEE4failB8ue170006Ev, symObjAddr: 0x1E58, symBinAddr: 0x100004994, symSize: 0x28 }
  - { offsetInCU: 0xC9CD, offset: 0xC9CD, size: 0x8, addend: 0x0, symName: __ZNKSt3__18ios_base4failB8ue170006Ev, symObjAddr: 0x1E80, symBinAddr: 0x1000049BC, symSize: 0x28 }
  - { offsetInCU: 0xC9F5, offset: 0xC9F5, size: 0x8, addend: 0x0, symName: __ZNSt3__111char_traitsIcE6lengthB8ue170006EPKc, symObjAddr: 0x209C, symBinAddr: 0x100004BD8, symSize: 0x48 }
  - { offsetInCU: 0xCA36, offset: 0xCA36, size: 0x8, addend: 0x0, symName: __ZNKSt3__113basic_ostreamIcNS_11char_traitsIcEEE6sentrycvbB8ue170006Ev, symObjAddr: 0x20E4, symBinAddr: 0x100004C20, symSize: 0x1C }
  - { offsetInCU: 0xCA5C, offset: 0xCA5C, size: 0x8, addend: 0x0, symName: __ZNSt3__119ostreambuf_iteratorIcNS_11char_traitsIcEEEC1B8ue170006ERNS_13basic_ostreamIcS2_EE, symObjAddr: 0x2348, symBinAddr: 0x100004E84, symSize: 0x34 }
  - { offsetInCU: 0xCA94, offset: 0xCA94, size: 0x8, addend: 0x0, symName: __ZNKSt3__18ios_base5flagsB8ue170006Ev, symObjAddr: 0x237C, symBinAddr: 0x100004EB8, symSize: 0x18 }
  - { offsetInCU: 0xCABC, offset: 0xCABC, size: 0x8, addend: 0x0, symName: __ZNKSt3__19basic_iosIcNS_11char_traitsIcEEE4fillB8ue170006Ev, symObjAddr: 0x2394, symBinAddr: 0x100004ED0, symSize: 0x64 }
  - { offsetInCU: 0xCAE4, offset: 0xCAE4, size: 0x8, addend: 0x0, symName: __ZNKSt3__119ostreambuf_iteratorIcNS_11char_traitsIcEEE6failedB8ue170006Ev, symObjAddr: 0x23F8, symBinAddr: 0x100004F34, symSize: 0x24 }
  - { offsetInCU: 0xCB0A, offset: 0xCB0A, size: 0x8, addend: 0x0, symName: __ZNKSt3__18ios_base5widthB8ue170006Ev, symObjAddr: 0x241C, symBinAddr: 0x100004F58, symSize: 0x18 }
  - { offsetInCU: 0xCB32, offset: 0xCB32, size: 0x8, addend: 0x0, symName: __ZNSt3__115basic_streambufIcNS_11char_traitsIcEEE5sputnB8ue170006EPKcl, symObjAddr: 0x2434, symBinAddr: 0x100004F70, symSize: 0x3C }
  - { offsetInCU: 0xCB74, offset: 0xCB74, size: 0x8, addend: 0x0, symName: __ZNSt3__112basic_stringIcNS_11char_traitsIcEENS_9allocatorIcEEEC1B8ue170006Emc, symObjAddr: 0x2470, symBinAddr: 0x100004FAC, symSize: 0x3C }
  - { offsetInCU: 0xCBBC, offset: 0xCBBC, size: 0x8, addend: 0x0, symName: __ZNSt3__18ios_base5widthB8ue170006El, symObjAddr: 0x24AC, symBinAddr: 0x100004FE8, symSize: 0x2C }
  - { offsetInCU: 0xCC02, offset: 0xCC02, size: 0x8, addend: 0x0, symName: __ZNSt3__112basic_stringIcNS_11char_traitsIcEENS_9allocatorIcEEEC2B8ue170006Emc, symObjAddr: 0x24D8, symBinAddr: 0x100005014, symSize: 0x4C }
  - { offsetInCU: 0xCC4A, offset: 0xCC4A, size: 0x8, addend: 0x0, symName: __ZNSt3__119ostreambuf_iteratorIcNS_11char_traitsIcEEEC2B8ue170006ERNS_13basic_ostreamIcS2_EE, symObjAddr: 0x2524, symBinAddr: 0x100005060, symSize: 0x68 }
  - { offsetInCU: 0xCC82, offset: 0xCC82, size: 0x8, addend: 0x0, symName: __ZNKSt3__19basic_iosIcNS_11char_traitsIcEEE5rdbufB8ue170006Ev, symObjAddr: 0x258C, symBinAddr: 0x1000050C8, symSize: 0x24 }
  - { offsetInCU: 0xCCAA, offset: 0xCCAA, size: 0x8, addend: 0x0, symName: __ZNKSt3__18ios_base5rdbufB8ue170006Ev, symObjAddr: 0x25B0, symBinAddr: 0x1000050EC, symSize: 0x18 }
  - { offsetInCU: 0xCCD0, offset: 0xCCD0, size: 0x8, addend: 0x0, symName: __ZNSt3__111char_traitsIcE11eq_int_typeB8ue170006Eii, symObjAddr: 0x25C8, symBinAddr: 0x100005104, symSize: 0x28 }
  - { offsetInCU: 0xCD03, offset: 0xCD03, size: 0x8, addend: 0x0, symName: __ZNKSt3__19basic_iosIcNS_11char_traitsIcEEE5widenB8ue170006Ec, symObjAddr: 0x25F0, symBinAddr: 0x10000512C, symSize: 0x8C }
  - { offsetInCU: 0xCD71, offset: 0xCD71, size: 0x8, addend: 0x0, symName: __ZNKSt3__15ctypeIcE5widenB8ue170006Ec, symObjAddr: 0x26A8, symBinAddr: 0x1000051E4, symSize: 0x38 }
  - { offsetInCU: 0xCDA6, offset: 0xCDA6, size: 0x8, addend: 0x0, symName: __ZNKSt3__112basic_stringIcNS_11char_traitsIcEENS_9allocatorIcEEE4sizeB8ue170006Ev, symObjAddr: 0x2704, symBinAddr: 0x100005240, symSize: 0x54 }
  - { offsetInCU: 0xCDCC, offset: 0xCDCC, size: 0x8, addend: 0x0, symName: __ZNKSt3__112basic_stringIcNS_11char_traitsIcEENS_9allocatorIcEEE15__get_long_sizeB8ue170006Ev, symObjAddr: 0x2758, symBinAddr: 0x100005294, symSize: 0x28 }
  - { offsetInCU: 0xCDF2, offset: 0xCDF2, size: 0x8, addend: 0x0, symName: __ZNKSt3__112basic_stringIcNS_11char_traitsIcEENS_9allocatorIcEEE16__get_short_sizeB8ue170006Ev, symObjAddr: 0x2780, symBinAddr: 0x1000052BC, symSize: 0x34 }
  - { offsetInCU: 0xCE18, offset: 0xCE18, size: 0x8, addend: 0x0, symName: __ZNSt3__112basic_stringIcNS_11char_traitsIcEENS_9allocatorIcEEE13__get_pointerB8ue170006Ev, symObjAddr: 0x27B4, symBinAddr: 0x1000052F0, symSize: 0x54 }
  - { offsetInCU: 0xCE3E, offset: 0xCE3E, size: 0x8, addend: 0x0, symName: __ZNSt3__112basic_stringIcNS_11char_traitsIcEENS_9allocatorIcEEE18__get_long_pointerB8ue170006Ev, symObjAddr: 0x2808, symBinAddr: 0x100005344, symSize: 0x28 }
  - { offsetInCU: 0xCE64, offset: 0xCE64, size: 0x8, addend: 0x0, symName: __ZNSt3__112basic_stringIcNS_11char_traitsIcEENS_9allocatorIcEEE19__get_short_pointerB8ue170006Ev, symObjAddr: 0x2830, symBinAddr: 0x10000536C, symSize: 0x28 }
  - { offsetInCU: 0xCE8A, offset: 0xCE8A, size: 0x8, addend: 0x0, symName: __ZNSt3__114pointer_traitsIPcE10pointer_toB8ue170006ERc, symObjAddr: 0x2858, symBinAddr: 0x100005394, symSize: 0x14 }
  - { offsetInCU: 0xCEAD, offset: 0xCEAD, size: 0x8, addend: 0x0, symName: __ZNSt3__16vectorINS_5arrayIiLm2EEENS_9allocatorIS2_EEE9__end_capB8ue170006Ev, symObjAddr: 0x286C, symBinAddr: 0x1000053A8, symSize: 0x28 }
  - { offsetInCU: 0xCED3, offset: 0xCED3, size: 0x8, addend: 0x0, symName: __ZNSt3__16vectorINS_5arrayIiLm2EEENS_9allocatorIS2_EEE22__construct_one_at_endB8ue170006IJRKS2_EEEvDpOT_, symObjAddr: 0x2894, symBinAddr: 0x1000053D0, symSize: 0x98 }
  - { offsetInCU: 0xCF22, offset: 0xCF22, size: 0x8, addend: 0x0, symName: __ZNSt3__16vectorINS_5arrayIiLm2EEENS_9allocatorIS2_EEE21__push_back_slow_pathIRKS2_EEvOT_, symObjAddr: 0x292C, symBinAddr: 0x100005468, symSize: 0xE0 }
  - { offsetInCU: 0xCF80, offset: 0xCF80, size: 0x8, addend: 0x0, symName: __ZNSt3__117__compressed_pairIPNS_5arrayIiLm2EEENS_9allocatorIS2_EEE5firstB8ue170006Ev, symObjAddr: 0x2A0C, symBinAddr: 0x100005548, symSize: 0x24 }
  - { offsetInCU: 0xCFA6, offset: 0xCFA6, size: 0x8, addend: 0x0, symName: __ZNSt3__122__compressed_pair_elemIPNS_5arrayIiLm2EEELi0ELb0EE5__getB8ue170006Ev, symObjAddr: 0x2A30, symBinAddr: 0x10000556C, symSize: 0x14 }
  - { offsetInCU: 0xCFE5, offset: 0xCFE5, size: 0x8, addend: 0x0, symName: __ZNSt3__16vectorINS_5arrayIiLm2EEENS_9allocatorIS2_EEE21_ConstructTransactionC1B8ue170006ERS5_m, symObjAddr: 0x2A44, symBinAddr: 0x100005580, symSize: 0x3C }
  - { offsetInCU: 0xD02D, offset: 0xD02D, size: 0x8, addend: 0x0, symName: __ZNSt3__116allocator_traitsINS_9allocatorINS_5arrayIiLm2EEEEEE9constructB8ue170006IS3_JRKS3_EvEEvRS4_PT_DpOT0_, symObjAddr: 0x2A80, symBinAddr: 0x1000055BC, symSize: 0x34 }
  - { offsetInCU: 0xD084, offset: 0xD084, size: 0x8, addend: 0x0, symName: __ZNSt3__16vectorINS_5arrayIiLm2EEENS_9allocatorIS2_EEE7__allocB8ue170006Ev, symObjAddr: 0x2AB4, symBinAddr: 0x1000055F0, symSize: 0x28 }
  - { offsetInCU: 0xD0AA, offset: 0xD0AA, size: 0x8, addend: 0x0, symName: __ZNSt3__16vectorINS_5arrayIiLm2EEENS_9allocatorIS2_EEE21_ConstructTransactionD1B8ue170006Ev, symObjAddr: 0x2AF0, symBinAddr: 0x10000562C, symSize: 0x2C }
  - { offsetInCU: 0xD0D4, offset: 0xD0D4, size: 0x8, addend: 0x0, symName: __ZNSt3__16vectorINS_5arrayIiLm2EEENS_9allocatorIS2_EEE21_ConstructTransactionC2B8ue170006ERS5_m, symObjAddr: 0x2B1C, symBinAddr: 0x100005658, symSize: 0x44 }
  - { offsetInCU: 0xD11C, offset: 0xD11C, size: 0x8, addend: 0x0, symName: __ZNSt3__19allocatorINS_5arrayIiLm2EEEE9constructB8ue170006IS2_JRKS2_EEEvPT_DpOT0_, symObjAddr: 0x2B60, symBinAddr: 0x10000569C, symSize: 0x28 }
  - { offsetInCU: 0xD172, offset: 0xD172, size: 0x8, addend: 0x0, symName: __ZNSt3__117__compressed_pairIPNS_5arrayIiLm2EEENS_9allocatorIS2_EEE6secondB8ue170006Ev, symObjAddr: 0x2B88, symBinAddr: 0x1000056C4, symSize: 0x24 }
  - { offsetInCU: 0xD198, offset: 0xD198, size: 0x8, addend: 0x0, symName: __ZNSt3__122__compressed_pair_elemINS_9allocatorINS_5arrayIiLm2EEEEELi1ELb1EE5__getB8ue170006Ev, symObjAddr: 0x2BAC, symBinAddr: 0x1000056E8, symSize: 0x14 }
  - { offsetInCU: 0xD1BE, offset: 0xD1BE, size: 0x8, addend: 0x0, symName: __ZNSt3__16vectorINS_5arrayIiLm2EEENS_9allocatorIS2_EEE21_ConstructTransactionD2B8ue170006Ev, symObjAddr: 0x2BC0, symBinAddr: 0x1000056FC, symSize: 0x20 }
  - { offsetInCU: 0xD1E8, offset: 0xD1E8, size: 0x8, addend: 0x0, symName: __ZNKSt3__16vectorINS_5arrayIiLm2EEENS_9allocatorIS2_EEE11__recommendB8ue170006Em, symObjAddr: 0x2BE0, symBinAddr: 0x10000571C, symSize: 0xB4 }
  - { offsetInCU: 0xD23D, offset: 0xD23D, size: 0x8, addend: 0x0, symName: __ZNKSt3__16vectorINS_5arrayIiLm2EEENS_9allocatorIS2_EEE4sizeB8ue170006Ev, symObjAddr: 0x2C94, symBinAddr: 0x1000057D0, symSize: 0x28 }
  - { offsetInCU: 0xD263, offset: 0xD263, size: 0x8, addend: 0x0, symName: __ZNSt3__114__split_bufferINS_5arrayIiLm2EEERNS_9allocatorIS2_EEEC1EmmS5_, symObjAddr: 0x2CBC, symBinAddr: 0x1000057F8, symSize: 0x44 }
  - { offsetInCU: 0xD2B9, offset: 0xD2B9, size: 0x8, addend: 0x0, symName: __ZNSt3__114__split_bufferINS_5arrayIiLm2EEERNS_9allocatorIS2_EEED1Ev, symObjAddr: 0x2E10, symBinAddr: 0x10000594C, symSize: 0x2C }
  - { offsetInCU: 0xD2E5, offset: 0xD2E5, size: 0x8, addend: 0x0, symName: __ZNKSt3__16vectorINS_5arrayIiLm2EEENS_9allocatorIS2_EEE8max_sizeEv, symObjAddr: 0x2E3C, symBinAddr: 0x100005978, symSize: 0x74 }
  - { offsetInCU: 0xD30D, offset: 0xD30D, size: 0x8, addend: 0x0, symName: __ZNKSt3__16vectorINS_5arrayIiLm2EEENS_9allocatorIS2_EEE20__throw_length_errorB8ue170006Ev, symObjAddr: 0x2EB0, symBinAddr: 0x1000059EC, symSize: 0x1C }
  - { offsetInCU: 0xD333, offset: 0xD333, size: 0x8, addend: 0x0, symName: __ZNKSt3__16vectorINS_5arrayIiLm2EEENS_9allocatorIS2_EEE8capacityB8ue170006Ev, symObjAddr: 0x2ECC, symBinAddr: 0x100005A08, symSize: 0x40 }
  - { offsetInCU: 0xD363, offset: 0xD363, size: 0x8, addend: 0x0, symName: __ZNSt3__116allocator_traitsINS_9allocatorINS_5arrayIiLm2EEEEEE8max_sizeB8ue170006IS4_vEEmRKS4_, symObjAddr: 0x2F64, symBinAddr: 0x100005AA0, symSize: 0x24 }
  - { offsetInCU: 0xD391, offset: 0xD391, size: 0x8, addend: 0x0, symName: __ZNKSt3__16vectorINS_5arrayIiLm2EEENS_9allocatorIS2_EEE7__allocB8ue170006Ev, symObjAddr: 0x2F88, symBinAddr: 0x100005AC4, symSize: 0x28 }
  - { offsetInCU: 0xD3B7, offset: 0xD3B7, size: 0x8, addend: 0x0, symName: __ZNSt3__114numeric_limitsIlE3maxB8ue170006Ev, symObjAddr: 0x2FB0, symBinAddr: 0x100005AEC, symSize: 0x14 }
  - { offsetInCU: 0xD3DF, offset: 0xD3DF, size: 0x8, addend: 0x0, symName: __ZNKSt3__16__lessIvvEclB8ue170006ImmEEbRKT_RKT0_, symObjAddr: 0x3018, symBinAddr: 0x100005B54, symSize: 0x34 }
  - { offsetInCU: 0xD433, offset: 0xD433, size: 0x8, addend: 0x0, symName: __ZNKSt3__19allocatorINS_5arrayIiLm2EEEE8max_sizeB8ue170006Ev, symObjAddr: 0x304C, symBinAddr: 0x100005B88, symSize: 0x14 }
  - { offsetInCU: 0xD459, offset: 0xD459, size: 0x8, addend: 0x0, symName: __ZNKSt3__117__compressed_pairIPNS_5arrayIiLm2EEENS_9allocatorIS2_EEE6secondB8ue170006Ev, symObjAddr: 0x3060, symBinAddr: 0x100005B9C, symSize: 0x24 }
  - { offsetInCU: 0xD47F, offset: 0xD47F, size: 0x8, addend: 0x0, symName: __ZNKSt3__122__compressed_pair_elemINS_9allocatorINS_5arrayIiLm2EEEEELi1ELb1EE5__getB8ue170006Ev, symObjAddr: 0x3084, symBinAddr: 0x100005BC0, symSize: 0x14 }
  - { offsetInCU: 0xD4A5, offset: 0xD4A5, size: 0x8, addend: 0x0, symName: __ZNSt3__123__libcpp_numeric_limitsIlLb1EE3maxB8ue170006Ev, symObjAddr: 0x3098, symBinAddr: 0x100005BD4, symSize: 0x8 }
  - { offsetInCU: 0xD4B9, offset: 0xD4B9, size: 0x8, addend: 0x0, symName: __ZNSt12length_errorC1B8ue170006EPKc, symObjAddr: 0x3104, symBinAddr: 0x100005C40, symSize: 0x34 }
  - { offsetInCU: 0xD4F1, offset: 0xD4F1, size: 0x8, addend: 0x0, symName: __ZNSt12length_errorC2B8ue170006EPKc, symObjAddr: 0x3138, symBinAddr: 0x100005C74, symSize: 0x4C }
  - { offsetInCU: 0xD529, offset: 0xD529, size: 0x8, addend: 0x0, symName: __ZNKSt3__16vectorINS_5arrayIiLm2EEENS_9allocatorIS2_EEE9__end_capB8ue170006Ev, symObjAddr: 0x3184, symBinAddr: 0x100005CC0, symSize: 0x28 }
  - { offsetInCU: 0xD54F, offset: 0xD54F, size: 0x8, addend: 0x0, symName: __ZNKSt3__117__compressed_pairIPNS_5arrayIiLm2EEENS_9allocatorIS2_EEE5firstB8ue170006Ev, symObjAddr: 0x31AC, symBinAddr: 0x100005CE8, symSize: 0x24 }
  - { offsetInCU: 0xD575, offset: 0xD575, size: 0x8, addend: 0x0, symName: __ZNKSt3__122__compressed_pair_elemIPNS_5arrayIiLm2EEELi0ELb0EE5__getB8ue170006Ev, symObjAddr: 0x31D0, symBinAddr: 0x100005D0C, symSize: 0x14 }
  - { offsetInCU: 0xD59B, offset: 0xD59B, size: 0x8, addend: 0x0, symName: __ZNSt3__114__split_bufferINS_5arrayIiLm2EEERNS_9allocatorIS2_EEEC2EmmS5_, symObjAddr: 0x3238, symBinAddr: 0x100005D74, symSize: 0xD4 }
  - { offsetInCU: 0xD60F, offset: 0xD60F, size: 0x8, addend: 0x0, symName: __ZNSt3__117__compressed_pairIPNS_5arrayIiLm2EEERNS_9allocatorIS2_EEEC1B8ue170006IDnS6_EEOT_OT0_, symObjAddr: 0x330C, symBinAddr: 0x100005E48, symSize: 0x3C }
  - { offsetInCU: 0xD667, offset: 0xD667, size: 0x8, addend: 0x0, symName: __ZNSt3__114__split_bufferINS_5arrayIiLm2EEERNS_9allocatorIS2_EEE7__allocB8ue170006Ev, symObjAddr: 0x3388, symBinAddr: 0x100005EC4, symSize: 0x28 }
  - { offsetInCU: 0xD68D, offset: 0xD68D, size: 0x8, addend: 0x0, symName: __ZNSt3__114__split_bufferINS_5arrayIiLm2EEERNS_9allocatorIS2_EEE9__end_capB8ue170006Ev, symObjAddr: 0x33B0, symBinAddr: 0x100005EEC, symSize: 0x28 }
  - { offsetInCU: 0xD6B3, offset: 0xD6B3, size: 0x8, addend: 0x0, symName: __ZNSt3__117__compressed_pairIPNS_5arrayIiLm2EEERNS_9allocatorIS2_EEEC2B8ue170006IDnS6_EEOT_OT0_, symObjAddr: 0x33D8, symBinAddr: 0x100005F14, symSize: 0x48 }
  - { offsetInCU: 0xD70B, offset: 0xD70B, size: 0x8, addend: 0x0, symName: __ZNSt3__122__compressed_pair_elemIRNS_9allocatorINS_5arrayIiLm2EEEEELi1ELb0EEC2B8ue170006IS5_vEEOT_, symObjAddr: 0x3420, symBinAddr: 0x100005F5C, symSize: 0x20 }
  - { offsetInCU: 0xD74D, offset: 0xD74D, size: 0x8, addend: 0x0, symName: __ZNSt3__19allocatorINS_5arrayIiLm2EEEE8allocateB8ue170006Em, symObjAddr: 0x3440, symBinAddr: 0x100005F7C, symSize: 0x84 }
  - { offsetInCU: 0xD781, offset: 0xD781, size: 0x8, addend: 0x0, symName: __ZNSt3__117__compressed_pairIPNS_5arrayIiLm2EEERNS_9allocatorIS2_EEE6secondB8ue170006Ev, symObjAddr: 0x34C4, symBinAddr: 0x100006000, symSize: 0x28 }
  - { offsetInCU: 0xD7A7, offset: 0xD7A7, size: 0x8, addend: 0x0, symName: __ZNSt3__122__compressed_pair_elemIRNS_9allocatorINS_5arrayIiLm2EEEEELi1ELb0EE5__getB8ue170006Ev, symObjAddr: 0x34EC, symBinAddr: 0x100006028, symSize: 0x18 }
  - { offsetInCU: 0xD7CD, offset: 0xD7CD, size: 0x8, addend: 0x0, symName: __ZNSt3__117__compressed_pairIPNS_5arrayIiLm2EEERNS_9allocatorIS2_EEE5firstB8ue170006Ev, symObjAddr: 0x3504, symBinAddr: 0x100006040, symSize: 0x24 }
  - { offsetInCU: 0xD7F3, offset: 0xD7F3, size: 0x8, addend: 0x0, symName: __ZNKSt3__16vectorINS_5arrayIiLm2EEENS_9allocatorIS2_EEE17__annotate_deleteB8ue170006Ev, symObjAddr: 0x3528, symBinAddr: 0x100006064, symSize: 0xB8 }
  - { offsetInCU: 0xD819, offset: 0xD819, size: 0x8, addend: 0x0, symName: __ZNSt3__116reverse_iteratorIPNS_5arrayIiLm2EEEEC1B8ue170006ES3_, symObjAddr: 0x36C8, symBinAddr: 0x100006204, symSize: 0x34 }
  - { offsetInCU: 0xD851, offset: 0xD851, size: 0x8, addend: 0x0, symName: __ZNKSt3__116reverse_iteratorIPNS_5arrayIiLm2EEEE4baseB8ue170006Ev, symObjAddr: 0x36FC, symBinAddr: 0x100006238, symSize: 0x18 }
  - { offsetInCU: 0xD877, offset: 0xD877, size: 0x8, addend: 0x0, symName: __ZNKSt3__16vectorINS_5arrayIiLm2EEENS_9allocatorIS2_EEE14__annotate_newB8ue170006Em, symObjAddr: 0x3750, symBinAddr: 0x10000628C, symSize: 0xAC }
  - { offsetInCU: 0xD8AC, offset: 0xD8AC, size: 0x8, addend: 0x0, symName: __ZNKSt3__16vectorINS_5arrayIiLm2EEENS_9allocatorIS2_EEE31__annotate_contiguous_containerB8ue170006EPKvS7_S7_S7_, symObjAddr: 0x37FC, symBinAddr: 0x100006338, symSize: 0x20 }
  - { offsetInCU: 0xD8FE, offset: 0xD8FE, size: 0x8, addend: 0x0, symName: __ZNKSt3__16vectorINS_5arrayIiLm2EEENS_9allocatorIS2_EEE4dataB8ue170006Ev, symObjAddr: 0x381C, symBinAddr: 0x100006358, symSize: 0x28 }
  - { offsetInCU: 0xD924, offset: 0xD924, size: 0x8, addend: 0x0, symName: __ZNKSt3__116reverse_iteratorIPNS_5arrayIiLm2EEEEdeB8ue170006Ev, symObjAddr: 0x38DC, symBinAddr: 0x100006418, symSize: 0x28 }
  - { offsetInCU: 0xD958, offset: 0xD958, size: 0x8, addend: 0x0, symName: __ZNSt3__116reverse_iteratorIPNS_5arrayIiLm2EEEEppB8ue170006Ev, symObjAddr: 0x3904, symBinAddr: 0x100006440, symSize: 0x20 }
  - { offsetInCU: 0xD983, offset: 0xD983, size: 0x8, addend: 0x0, symName: __ZNSt3__119__to_address_helperINS_16reverse_iteratorIPNS_5arrayIiLm2EEEEEvE6__callB8ue170006ERKS5_, symObjAddr: 0x399C, symBinAddr: 0x1000064D8, symSize: 0x4C }
  - { offsetInCU: 0xD9A6, offset: 0xD9A6, size: 0x8, addend: 0x0, symName: __ZNKSt3__116reverse_iteratorIPNS_5arrayIiLm2EEEEptB8ue170006Ev, symObjAddr: 0x39E8, symBinAddr: 0x100006524, symSize: 0x24 }
  - { offsetInCU: 0xD9EF, offset: 0xD9EF, size: 0x8, addend: 0x0, symName: __ZNKSt3__111__move_loopINS_17_ClassicAlgPolicyEEclB8ue170006INS_16reverse_iteratorIPNS_5arrayIiLm2EEEEES8_S8_EENS_4pairIT_T1_EESA_T0_SB_, symObjAddr: 0x3C84, symBinAddr: 0x1000067C0, symSize: 0xA0 }
  - { offsetInCU: 0xDA5F, offset: 0xDA5F, size: 0x8, addend: 0x0, symName: __ZNSt3__18_IterOpsINS_17_ClassicAlgPolicyEE11__iter_moveB8ue170006IRNS_16reverse_iteratorIPNS_5arrayIiLm2EEEEEEENS_9enable_ifIXsr12is_referenceIDTdeclsr3stdE7declvalIRT_EEEEE5valueEDTclsr3stdE4movedeclsr3stdE7declvalISC_EEEEE4typeEOSB_, symObjAddr: 0x3E84, symBinAddr: 0x1000069C0, symSize: 0x28 }
  - { offsetInCU: 0xDA8B, offset: 0xDA8B, size: 0x8, addend: 0x0, symName: __ZNSt3__18_IterOpsINS_17_ClassicAlgPolicyEE25__validate_iter_referenceB8ue170006IRNS_16reverse_iteratorIPNS_5arrayIiLm2EEEEEEEvv, symObjAddr: 0x3EAC, symBinAddr: 0x1000069E8, symSize: 0x4 }
  - { offsetInCU: 0xDAA9, offset: 0xDAA9, size: 0x8, addend: 0x0, symName: __ZNSt3__118__unwrap_iter_implINS_16reverse_iteratorIPNS_5arrayIiLm2EEEEELb0EE8__unwrapB8ue170006ES5_, symObjAddr: 0x3EB0, symBinAddr: 0x1000069EC, symSize: 0x24 }
  - { offsetInCU: 0xDACC, offset: 0xDACC, size: 0x8, addend: 0x0, symName: __ZNSt3__14pairINS_16reverse_iteratorIPNS_5arrayIiLm2EEEEES5_EC1B8ue170006ERKS5_S8_, symObjAddr: 0x3ED4, symBinAddr: 0x100006A10, symSize: 0x3C }
  - { offsetInCU: 0xDB12, offset: 0xDB12, size: 0x8, addend: 0x0, symName: __ZNSt3__14pairINS_16reverse_iteratorIPNS_5arrayIiLm2EEEEES5_EC2B8ue170006ERKS5_S8_, symObjAddr: 0x3F10, symBinAddr: 0x100006A4C, symSize: 0x34 }
  - { offsetInCU: 0xDB58, offset: 0xDB58, size: 0x8, addend: 0x0, symName: __ZNSt3__118__unwrap_iter_implINS_16reverse_iteratorIPNS_5arrayIiLm2EEEEELb0EE8__rewrapB8ue170006ES5_S5_, symObjAddr: 0x3F44, symBinAddr: 0x100006A80, symSize: 0x2C }
  - { offsetInCU: 0xDB85, offset: 0xDB85, size: 0x8, addend: 0x0, symName: __ZNSt3__116reverse_iteratorIPNS_5arrayIiLm2EEEEC2B8ue170006ES3_, symObjAddr: 0x3F70, symBinAddr: 0x100006AAC, symSize: 0x28 }
  - { offsetInCU: 0xDBBD, offset: 0xDBBD, size: 0x8, addend: 0x0, symName: __ZNSt3__114__split_bufferINS_5arrayIiLm2EEERNS_9allocatorIS2_EEED2Ev, symObjAddr: 0x3F98, symBinAddr: 0x100006AD4, symSize: 0x80 }
  - { offsetInCU: 0xDBE9, offset: 0xDBE9, size: 0x8, addend: 0x0, symName: __ZNSt3__114__split_bufferINS_5arrayIiLm2EEERNS_9allocatorIS2_EEE5clearB8ue170006Ev, symObjAddr: 0x4018, symBinAddr: 0x100006B54, symSize: 0x28 }
  - { offsetInCU: 0xDC0F, offset: 0xDC0F, size: 0x8, addend: 0x0, symName: __ZNSt3__116allocator_traitsINS_9allocatorINS_5arrayIiLm2EEEEEE10deallocateB8ue170006ERS4_PS3_m, symObjAddr: 0x4040, symBinAddr: 0x100006B7C, symSize: 0x34 }
  - { offsetInCU: 0xDC51, offset: 0xDC51, size: 0x8, addend: 0x0, symName: __ZNKSt3__114__split_bufferINS_5arrayIiLm2EEERNS_9allocatorIS2_EEE8capacityB8ue170006Ev, symObjAddr: 0x4074, symBinAddr: 0x100006BB0, symSize: 0x40 }
  - { offsetInCU: 0xDC77, offset: 0xDC77, size: 0x8, addend: 0x0, symName: __ZNSt3__114__split_bufferINS_5arrayIiLm2EEERNS_9allocatorIS2_EEE17__destruct_at_endB8ue170006EPS2_, symObjAddr: 0x40B4, symBinAddr: 0x100006BF0, symSize: 0x2C }
  - { offsetInCU: 0xDCAB, offset: 0xDCAB, size: 0x8, addend: 0x0, symName: __ZNSt3__114__split_bufferINS_5arrayIiLm2EEERNS_9allocatorIS2_EEE17__destruct_at_endB8ue170006EPS2_NS_17integral_constantIbLb0EEE, symObjAddr: 0x40E0, symBinAddr: 0x100006C1C, symSize: 0x94 }
  - { offsetInCU: 0xDCEB, offset: 0xDCEB, size: 0x8, addend: 0x0, symName: __ZNSt3__116allocator_traitsINS_9allocatorINS_5arrayIiLm2EEEEEE7destroyB8ue170006IS3_vEEvRS4_PT_, symObjAddr: 0x4174, symBinAddr: 0x100006CB0, symSize: 0x2C }
  - { offsetInCU: 0xDD28, offset: 0xDD28, size: 0x8, addend: 0x0, symName: __ZNSt3__19allocatorINS_5arrayIiLm2EEEE7destroyB8ue170006EPS2_, symObjAddr: 0x41A0, symBinAddr: 0x100006CDC, symSize: 0x14 }
  - { offsetInCU: 0xDD5C, offset: 0xDD5C, size: 0x8, addend: 0x0, symName: __ZNSt3__19allocatorINS_5arrayIiLm2EEEE10deallocateB8ue170006EPS2_m, symObjAddr: 0x41B4, symBinAddr: 0x100006CF0, symSize: 0x70 }
  - { offsetInCU: 0xDD9E, offset: 0xDD9E, size: 0x8, addend: 0x0, symName: __ZNKSt3__114__split_bufferINS_5arrayIiLm2EEERNS_9allocatorIS2_EEE9__end_capB8ue170006Ev, symObjAddr: 0x42A0, symBinAddr: 0x100006DDC, symSize: 0x28 }
  - { offsetInCU: 0xDDC4, offset: 0xDDC4, size: 0x8, addend: 0x0, symName: __ZNKSt3__117__compressed_pairIPNS_5arrayIiLm2EEERNS_9allocatorIS2_EEE5firstB8ue170006Ev, symObjAddr: 0x42C8, symBinAddr: 0x100006E04, symSize: 0x24 }
  - { offsetInCU: 0xDDEA, offset: 0xDDEA, size: 0x8, addend: 0x0, symName: __ZNSt3__118basic_stringstreamIcNS_11char_traitsIcEENS_9allocatorIcEEED2Ev, symObjAddr: 0x42EC, symBinAddr: 0x100006E28, symSize: 0xA4 }
  - { offsetInCU: 0xDE24, offset: 0xDE24, size: 0x8, addend: 0x0, symName: __ZThn16_NSt3__118basic_stringstreamIcNS_11char_traitsIcEENS_9allocatorIcEEED1Ev, symObjAddr: 0x4390, symBinAddr: 0x100006ECC, symSize: 0x1C }
  - { offsetInCU: 0xDE3B, offset: 0xDE3B, size: 0x8, addend: 0x0, symName: __ZTv0_n24_NSt3__118basic_stringstreamIcNS_11char_traitsIcEENS_9allocatorIcEEED1Ev, symObjAddr: 0x43AC, symBinAddr: 0x100006EE8, symSize: 0x28 }
  - { offsetInCU: 0xDE57, offset: 0xDE57, size: 0x8, addend: 0x0, symName: __ZNSt3__115basic_stringbufIcNS_11char_traitsIcEENS_9allocatorIcEEED1Ev, symObjAddr: 0x43D4, symBinAddr: 0x100006F10, symSize: 0x2C }
  - { offsetInCU: 0xDE84, offset: 0xDE84, size: 0x8, addend: 0x0, symName: __ZNSt3__115basic_stringbufIcNS_11char_traitsIcEENS_9allocatorIcEEED2Ev, symObjAddr: 0x4400, symBinAddr: 0x100006F3C, symSize: 0x78 }
  - { offsetInCU: 0xDEB1, offset: 0xDEB1, size: 0x8, addend: 0x0, symName: __ZNSt3__114basic_ifstreamIcNS_11char_traitsIcEEED2Ev, symObjAddr: 0x4478, symBinAddr: 0x100006FB4, symSize: 0x9C }
  - { offsetInCU: 0xDEEB, offset: 0xDEEB, size: 0x8, addend: 0x0, symName: __ZTv0_n24_NSt3__114basic_ifstreamIcNS_11char_traitsIcEEED1Ev, symObjAddr: 0x4514, symBinAddr: 0x100007050, symSize: 0x28 }
  - { offsetInCU: 0xDF02, offset: 0xDF02, size: 0x8, addend: 0x0, symName: __ZNSt3__16vectorINS_5arrayIiLm2EEENS_9allocatorIS2_EEED2B8ue170006Ev, symObjAddr: 0x453C, symBinAddr: 0x100007078, symSize: 0x3C }
  - { offsetInCU: 0xDF2C, offset: 0xDF2C, size: 0x8, addend: 0x0, symName: __ZNSt3__16vectorINS_5arrayIiLm2EEENS_9allocatorIS2_EEE16__destroy_vectorC1B8ue170006ERS5_, symObjAddr: 0x4578, symBinAddr: 0x1000070B4, symSize: 0x34 }
  - { offsetInCU: 0xDF65, offset: 0xDF65, size: 0x8, addend: 0x0, symName: __ZNSt3__16vectorINS_5arrayIiLm2EEENS_9allocatorIS2_EEE16__destroy_vectorclB8ue170006Ev, symObjAddr: 0x45AC, symBinAddr: 0x1000070E8, symSize: 0x90 }
  - { offsetInCU: 0xDF8B, offset: 0xDF8B, size: 0x8, addend: 0x0, symName: __ZNSt3__16vectorINS_5arrayIiLm2EEENS_9allocatorIS2_EEE16__destroy_vectorC2B8ue170006ERS5_, symObjAddr: 0x463C, symBinAddr: 0x100007178, symSize: 0x20 }
  - { offsetInCU: 0xDFC4, offset: 0xDFC4, size: 0x8, addend: 0x0, symName: __ZNSt3__16vectorINS_5arrayIiLm2EEENS_9allocatorIS2_EEE7__clearB8ue170006Ev, symObjAddr: 0x465C, symBinAddr: 0x100007198, symSize: 0x28 }
  - { offsetInCU: 0xDFEA, offset: 0xDFEA, size: 0x8, addend: 0x0, symName: __ZNSt3__16vectorINS_5arrayIiLm2EEENS_9allocatorIS2_EEE22__base_destruct_at_endB8ue170006EPS2_, symObjAddr: 0x4684, symBinAddr: 0x1000071C0, symSize: 0xA0 }
  - { offsetInCU: 0xE02E, offset: 0xE02E, size: 0x8, addend: 0x0, symName: __ZNSt3__16vectorINS_5arrayIiLm2EEENS_9allocatorIS2_EEEixB8ue170006Em, symObjAddr: 0x4724, symBinAddr: 0x100007260, symSize: 0x24 }
  - { offsetInCU: 0xE065, offset: 0xE065, size: 0x8, addend: 0x0, symName: __ZNKSt3__15arrayIiLm2EE5beginB8ue170006Ev, symObjAddr: 0x47F8, symBinAddr: 0x100007334, symSize: 0x24 }
  - { offsetInCU: 0xE08B, offset: 0xE08B, size: 0x8, addend: 0x0, symName: __ZNKSt3__15arrayIiLm2EE3endB8ue170006Ev, symObjAddr: 0x481C, symBinAddr: 0x100007358, symSize: 0x28 }
  - { offsetInCU: 0xE0B6, offset: 0xE0B6, size: 0x8, addend: 0x0, symName: __ZNSt3__118__unwrap_iter_implIPKiLb1EE8__unwrapB8ue170006ES2_, symObjAddr: 0x4A04, symBinAddr: 0x100007540, symSize: 0x24 }
  - { offsetInCU: 0xE0D9, offset: 0xE0D9, size: 0x8, addend: 0x0, symName: __ZNKSt3__15arrayIiLm2EE4dataB8ue170006Ev, symObjAddr: 0x4A3C, symBinAddr: 0x100007578, symSize: 0x14 }
  - { offsetInCU: 0xE0FF, offset: 0xE0FF, size: 0x8, addend: 0x0, symName: __ZN5StateD2Ev, symObjAddr: 0x4A50, symBinAddr: 0x10000758C, symSize: 0x2C }
  - { offsetInCU: 0xE12B, offset: 0xE12B, size: 0x8, addend: 0x0, symName: __ZNSt3__112basic_stringIcNS_11char_traitsIcEENS_9allocatorIcEEEC2B8ue170006ILi0EEEPKc, symObjAddr: 0x4A7C, symBinAddr: 0x1000075B8, symSize: 0x58 }
...
